; ModuleID = '24/691.c'
source_filename = "24/691.c"
target datalayout = "e-m:e-p270:32:32-p271:32:32-p272:64:64-i64:64-f80:128-n8:16:32:64-S128"
target triple = "x86_64-pc-linux-gnu"

@.str = private unnamed_addr constant [3 x i8] c"%c\00", align 1
@.str.1 = private unnamed_addr constant [2 x i8] c"\0A\00", align 1

; Function Attrs: noinline nounwind uwtable
define dso_local i32 @main() #0 {
  %1 = alloca i32, align 4
  %2 = alloca [1000 x i8], align 16
  %3 = alloca i32, align 4
  %4 = alloca i32, align 4
  %5 = alloca i32, align 4
  %6 = alloca i32, align 4
  %7 = alloca i32, align 4
  %8 = alloca i32, align 4
  %9 = alloca i32, align 4
  %10 = alloca i32, align 4
  %11 = alloca i32, align 4
  store i32 0, i32* %1, align 4
  %12 = getelementptr inbounds [1000 x i8], [1000 x i8]* %2, i64 0, i64 0
  %13 = call i32 (i8*, ...) bitcast (i32 (...)* @gets to i32 (i8*, ...)*)(i8* %12)
  store i32 0, i32* %3, align 4
  store i32 0, i32* %4, align 4
  store i32 10000, i32* %5, align 4
  store i32 0, i32* %6, align 4
  store i32 0, i32* %7, align 4
  store i32 0, i32* %8, align 4
  store i32 0, i32* %9, align 4
  br label %14

14:                                               ; preds = %55, %0
  %15 = load i32, i32* %9, align 4
  %16 = sext i32 %15 to i64
  %17 = getelementptr inbounds [1000 x i8], [1000 x i8]* %2, i64 0, i64 0
  %18 = call i64 @strlen(i8* %17) #3
  %19 = icmp ult i64 %16, %18
  br i1 %19, label %20, label %58

20:                                               ; preds = %14
  %21 = load i32, i32* %9, align 4
  %22 = sext i32 %21 to i64
  %23 = getelementptr inbounds [1000 x i8], [1000 x i8]* %2, i64 0, i64 %22
  %24 = load i8, i8* %23, align 1
  %25 = sext i8 %24 to i32
  %26 = icmp ne i32 %25, 32
  br i1 %26, label %27, label %38

27:                                               ; preds = %20
  %28 = load i32, i32* %7, align 4
  %29 = add nsw i32 %28, 1
  store i32 %29, i32* %7, align 4
  %30 = load i32, i32* %9, align 4
  %31 = sext i32 %30 to i64
  %32 = getelementptr inbounds [1000 x i8], [1000 x i8]* %2, i64 0, i64 0
  %33 = call i64 @strlen(i8* %32) #3
  %34 = sub i64 %33, 1
  %35 = icmp ne i64 %31, %34
  br i1 %35, label %36, label %37

36:                                               ; preds = %27
  br label %55

37:                                               ; preds = %27
  br label %38

38:                                               ; preds = %37, %20
  %39 = load i32, i32* %7, align 4
  %40 = load i32, i32* %5, align 4
  %41 = icmp slt i32 %39, %40
  br i1 %41, label %42, label %45

42:                                               ; preds = %38
  %43 = load i32, i32* %7, align 4
  store i32 %43, i32* %5, align 4
  %44 = load i32, i32* %8, align 4
  store i32 %44, i32* %3, align 4
  br label %45

45:                                               ; preds = %42, %38
  %46 = load i32, i32* %7, align 4
  %47 = load i32, i32* %6, align 4
  %48 = icmp sgt i32 %46, %47
  br i1 %48, label %49, label %52

49:                                               ; preds = %45
  %50 = load i32, i32* %7, align 4
  store i32 %50, i32* %6, align 4
  %51 = load i32, i32* %8, align 4
  store i32 %51, i32* %4, align 4
  br label %52

52:                                               ; preds = %49, %45
  %53 = load i32, i32* %9, align 4
  %54 = add nsw i32 %53, 1
  store i32 %54, i32* %8, align 4
  store i32 0, i32* %7, align 4
  br label %55

55:                                               ; preds = %52, %36
  %56 = load i32, i32* %9, align 4
  %57 = add nsw i32 %56, 1
  store i32 %57, i32* %9, align 4
  br label %14

58:                                               ; preds = %14
  store i32 0, i32* %10, align 4
  br label %59

59:                                               ; preds = %72, %58
  %60 = load i32, i32* %10, align 4
  %61 = load i32, i32* %6, align 4
  %62 = icmp ne i32 %60, %61
  br i1 %62, label %63, label %75

63:                                               ; preds = %59
  %64 = load i32, i32* %4, align 4
  %65 = load i32, i32* %10, align 4
  %66 = add nsw i32 %64, %65
  %67 = sext i32 %66 to i64
  %68 = getelementptr inbounds [1000 x i8], [1000 x i8]* %2, i64 0, i64 %67
  %69 = load i8, i8* %68, align 1
  %70 = sext i8 %69 to i32
  %71 = call i32 (i8*, ...) @printf(i8* getelementptr inbounds ([3 x i8], [3 x i8]* @.str, i64 0, i64 0), i32 %70)
  br label %72

72:                                               ; preds = %63
  %73 = load i32, i32* %10, align 4
  %74 = add nsw i32 %73, 1
  store i32 %74, i32* %10, align 4
  br label %59

75:                                               ; preds = %59
  %76 = call i32 (i8*, ...) @printf(i8* getelementptr inbounds ([2 x i8], [2 x i8]* @.str.1, i64 0, i64 0))
  store i32 0, i32* %11, align 4
  br label %77

77:                                               ; preds = %90, %75
  %78 = load i32, i32* %11, align 4
  %79 = load i32, i32* %5, align 4
  %80 = icmp ne i32 %78, %79
  br i1 %80, label %81, label %93

81:                                               ; preds = %77
  %82 = load i32, i32* %3, align 4
  %83 = load i32, i32* %11, align 4
  %84 = add nsw i32 %82, %83
  %85 = sext i32 %84 to i64
  %86 = getelementptr inbounds [1000 x i8], [1000 x i8]* %2, i64 0, i64 %85
  %87 = load i8, i8* %86, align 1
  %88 = sext i8 %87 to i32
  %89 = call i32 (i8*, ...) @printf(i8* getelementptr inbounds ([3 x i8], [3 x i8]* @.str, i64 0, i64 0), i32 %88)
  br label %90

90:                                               ; preds = %81
  %91 = load i32, i32* %11, align 4
  %92 = add nsw i32 %91, 1
  store i32 %92, i32* %11, align 4
  br label %77

93:                                               ; preds = %77
  ret i32 0
}

declare dso_local i32 @gets(...) #1

; Function Attrs: nounwind readonly
declare dso_local i64 @strlen(i8*) #2

declare dso_local i32 @printf(i8*, ...) #1


!llvm.module.flags = !{!0}
!llvm.ident = !{!1}

!0 = !{i32 1, !"wchar_size", i32 4}
!1 = !{!"clang version 10.0.0-4ubuntu1 "}
